; Function Attrs: null_pointer_is_valid sspstrong uwtable
define internal i32 @dissect_t124_T_value(ptr noundef %0, i32 noundef %1, ptr noundef %2, ptr noundef %3, i32 noundef %4) #0 {
  %6 = alloca ptr, align 8
  call void @llvm.lifetime.start.p0(i64 8, ptr nonnull %6) #8
  store ptr null, ptr %6, align 8
  %7 = getelementptr inbounds nuw i8, ptr %2, i64 48
  %8 = load ptr, ptr %7, align 8
  %9 = call i32 @dissect_per_octet_string(ptr noundef %0, i32 noundef %1, ptr noundef %2, ptr noundef %3, i32 noundef %4, i32 noundef -1, i32 noundef -1, i1 noundef zeroext false, ptr noundef nonnull %6)
  %10 = load ptr, ptr %6, align 8
  %11 = icmp ne ptr %10, null
  %12 = icmp ne ptr %8, null
  %or.cond = select i1 %11, i1 %12, i1 false
  br i1 %or.cond, label %13, label %26

13:                                               ; preds = %5
  %14 = getelementptr inbounds nuw i8, ptr %2, i64 16
  %15 = load ptr, ptr %14, align 8
  %16 = getelementptr inbounds nuw i8, ptr %15, i64 408
  %17 = load ptr, ptr %16, align 8
  %18 = call i32 @tvb_reported_length(ptr noundef nonnull %8)
  %19 = call ptr @tvb_get_string_enc(ptr noundef %17, ptr noundef nonnull %8, i32 noundef 0, i32 noundef %18, i32 noundef 0)
  %.not = icmp eq ptr %19, null
  br i1 %.not, label %26, label %20

20:                                               ; preds = %13
  %21 = load ptr, ptr @t124_ns_dissector_table, align 8
  %22 = load ptr, ptr %6, align 8
  %23 = load ptr, ptr %14, align 8
  %24 = load ptr, ptr @top_tree, align 8
  %25 = call i32 @dissector_try_string_with_data(ptr noundef %21, ptr noundef nonnull %19, ptr noundef %22, ptr noundef %23, ptr noundef %24, i1 noundef zeroext false, ptr noundef null)
  br label %26

26:                                               ; preds = %13, %20, %5
  call void @llvm.lifetime.end.p0(i64 8, ptr nonnull %6) #8
  ret i32 %9
}